target datalayout = "e-m:e-p270:32:32-p271:32:32-p272:64:64-i64:64-i128:128-f80:128-n8:16:32:64-S128"
target triple = "x86_64-pc-linux-gnu"

%"class.gmx::AwhBiasParams" = type <{ %"class.std::vector.12", i32, [4 x i8], double, double, i32, [4 x i8], double, i8, i8, [6 x i8], double, double, i32, i8, [3 x i8] }>
%"class.std::vector.12" = type { %"struct.std::_Vector_base.13" }
%"struct.std::_Vector_base.13" = type { %"struct.std::_Vector_base<gmx::AwhDimParams, std::allocator<gmx::AwhDimParams>>::_Vector_impl" }
%"struct.std::_Vector_base<gmx::AwhDimParams, std::allocator<gmx::AwhDimParams>>::_Vector_impl" = type { %"struct.std::_Vector_base<gmx::AwhDimParams, std::allocator<gmx::AwhDimParams>>::_Vector_impl_data" }
%"struct.std::_Vector_base<gmx::AwhDimParams, std::allocator<gmx::AwhDimParams>>::_Vector_impl_data" = type { ptr, ptr, ptr }
%"class.gmx::AwhParams" = type <{ %"class.std::vector.31", i64, i32, i32, i32, i32, i8, [7 x i8] }>
%"class.std::vector.31" = type { %"struct.std::_Vector_base.32" }
%"struct.std::_Vector_base.32" = type { %"struct.std::_Vector_base<gmx::AwhBiasParams, std::allocator<gmx::AwhBiasParams>>::_Vector_impl" }
%"struct.std::_Vector_base<gmx::AwhBiasParams, std::allocator<gmx::AwhBiasParams>>::_Vector_impl" = type { %"struct.std::_Vector_base<gmx::AwhBiasParams, std::allocator<gmx::AwhBiasParams>>::_Vector_impl_data" }
%"struct.std::_Vector_base<gmx::AwhBiasParams, std::allocator<gmx::AwhBiasParams>>::_Vector_impl_data" = type { ptr, ptr, ptr }
%class.anon.46 = type { i8 }

@.str.38 = private unnamed_addr constant [140 x i8] c"generated/home/dtcxzyw/WorkSpace/Projects/compilers/llvm-opt-benchmark/bench/gromacs/gromacs/src/gromacs/applied_forces/awh/read_params.cpp\00", align 1
@.str.39 = private unnamed_addr constant [23 x i8] c"!serializer->reading()\00", align 1
@.str.94 = private unnamed_addr constant [55 x i8] c"Can not use reading serializer to write AWH parameters\00", align 1
@"__PRETTY_FUNCTION__._ZZN3gmx9AwhParams9serializeEPNS_11ISerializerEENK3$_0clEv" = private unnamed_addr constant [85 x i8] c"auto gmx::AwhParams::serialize(ISerializer *)::(anonymous class)::operator()() const\00", align 1

; Function Attrs: mustprogress nounwind uwtable
define linkonce_odr noundef i64 @_ZNKSt6vectorIN3gmx13AwhBiasParamsESaIS1_EE4sizeEv(ptr noundef nonnull align 8 dereferenceable(24) %0) #3 comdat align 2 {
  %2 = alloca ptr, align 8
  store ptr %0, ptr %2, align 8
  %3 = load ptr, ptr %2, align 8
  %4 = getelementptr inbounds %"struct.std::_Vector_base.32", ptr %3, i32 0, i32 0
  %5 = getelementptr inbounds %"struct.std::_Vector_base<gmx::AwhBiasParams, std::allocator<gmx::AwhBiasParams>>::_Vector_impl_data", ptr %4, i32 0, i32 1
  %6 = load ptr, ptr %5, align 8
  %7 = getelementptr inbounds %"struct.std::_Vector_base.32", ptr %3, i32 0, i32 0
  %8 = getelementptr inbounds %"struct.std::_Vector_base<gmx::AwhBiasParams, std::allocator<gmx::AwhBiasParams>>::_Vector_impl_data", ptr %7, i32 0, i32 0
  %9 = load ptr, ptr %8, align 8
  %10 = ptrtoint ptr %6 to i64
  %11 = ptrtoint ptr %9 to i64
  %12 = sub i64 %10, %11
  %13 = sdiv exact i64 %12, 96
  ret i64 %13
}

; Function Attrs: mustprogress nounwind uwtable
define linkonce_odr noundef nonnull align 8 dereferenceable(93) ptr @_ZNSt6vectorIN3gmx13AwhBiasParamsESaIS1_EEixEm(ptr noundef nonnull align 8 dereferenceable(24) %0, i64 noundef %1) #3 comdat align 2 {
  %3 = alloca ptr, align 8
  %4 = alloca i64, align 8
  store ptr %0, ptr %3, align 8
  store i64 %1, ptr %4, align 8
  %5 = load ptr, ptr %3, align 8
  %6 = getelementptr inbounds %"struct.std::_Vector_base.32", ptr %5, i32 0, i32 0
  %7 = getelementptr inbounds %"struct.std::_Vector_base<gmx::AwhBiasParams, std::allocator<gmx::AwhBiasParams>>::_Vector_impl_data", ptr %6, i32 0, i32 0
  %8 = load ptr, ptr %7, align 8
  %9 = load i64, ptr %4, align 8
  %10 = getelementptr inbounds %"class.gmx::AwhBiasParams", ptr %8, i64 %9
  ret ptr %10
}

; Function Attrs: mustprogress uwtable
define linkonce_odr void @_ZN3gmx11ISerializer11doEnumAsIntINS_16AwhPotentialTypeEEEvPT_(ptr noundef nonnull align 8 dereferenceable(8) %0, ptr noundef %1) #2 comdat align 2 {
  %3 = alloca ptr, align 8
  %4 = alloca ptr, align 8
  %5 = alloca i32, align 4
  store ptr %0, ptr %3, align 8
  store ptr %1, ptr %4, align 8
  %6 = load ptr, ptr %3, align 8
  %7 = load ptr, ptr %4, align 8
  %8 = load i32, ptr %7, align 4
  store i32 %8, ptr %5, align 4
  %9 = load ptr, ptr %6, align 8
  %10 = getelementptr inbounds ptr, ptr %9, i64 7
  %11 = load ptr, ptr %10, align 8
  call void %11(ptr noundef nonnull align 8 dereferenceable(8) %6, ptr noundef %5)
  %12 = load i32, ptr %5, align 4
  %13 = load ptr, ptr %4, align 8
  store i32 %12, ptr %13, align 4
  ret void
}

; Function Attrs: mustprogress nounwind uwtable
define linkonce_odr noundef i32 @_ZNK3gmx9AwhParams7numBiasEv(ptr noundef nonnull align 8 dereferenceable(49) %0) #3 comdat align 2 {
  %2 = alloca ptr, align 8
  store ptr %0, ptr %2, align 8
  %3 = load ptr, ptr %2, align 8
  %4 = getelementptr inbounds %"class.gmx::AwhParams", ptr %3, i32 0, i32 0
  %5 = call noundef i64 @_ZNKSt6vectorIN3gmx13AwhBiasParamsESaIS1_EE4sizeEv(ptr noundef nonnull align 8 dereferenceable(24) %4) #4
  %6 = trunc i64 %5 to i32
  ret i32 %6
}

; Function Attrs: mustprogress uwtable
define internal void @"_ZZN3gmx9AwhParams9serializeEPNS_11ISerializerEENK3$_0clEv"(ptr noundef nonnull align 1 dereferenceable(1) %0) #2 align 2 {
  %2 = alloca ptr, align 8
  store ptr %0, ptr %2, align 8
  call void @_ZN3gmx8internal13assertHandlerEPKcS2_S2_S2_i(ptr noundef @.str.39, ptr noundef @.str.94, ptr noundef @"__PRETTY_FUNCTION__._ZZN3gmx9AwhParams9serializeEPNS_11ISerializerEENK3$_0clEv", ptr noundef @.str.38, i32 noundef 1039) #12
  unreachable
}

; Function Attrs: mustprogress uwtable
define void @_ZN3gmx9AwhParams9serializeEPNS_11ISerializerE(ptr noundef nonnull align 8 dereferenceable(49) %0, ptr noundef %1) #2 align 2 {
  %3 = alloca ptr, align 8
  %4 = alloca ptr, align 8
  %5 = alloca %class.anon.46, align 1
  %6 = alloca i32, align 4
  %7 = alloca i32, align 4
  store ptr %0, ptr %3, align 8
  store ptr %1, ptr %4, align 8
  %8 = load ptr, ptr %3, align 8
  %9 = load ptr, ptr %4, align 8
  %10 = load ptr, ptr %9, align 8
  %11 = getelementptr inbounds ptr, ptr %10, i64 2
  %12 = load ptr, ptr %11, align 8
  %13 = call noundef zeroext i1 %12(ptr noundef nonnull align 8 dereferenceable(8) %9)
  br i1 %13, label %15, label %14

14:                                               ; preds = %2
  br label %16

15:                                               ; preds = %2
  call void @"_ZZN3gmx9AwhParams9serializeEPNS_11ISerializerEENK3$_0clEv"(ptr noundef nonnull align 1 dereferenceable(1) %5)
  br label %16

16:                                               ; preds = %15, %14
  %17 = call noundef i32 @_ZNK3gmx9AwhParams7numBiasEv(ptr noundef nonnull align 8 dereferenceable(49) %8)
  store i32 %17, ptr %6, align 4
  %18 = load ptr, ptr %4, align 8
  %19 = load ptr, ptr %18, align 8
  %20 = getelementptr inbounds ptr, ptr %19, i64 7
  %21 = load ptr, ptr %20, align 8
  call void %21(ptr noundef nonnull align 8 dereferenceable(8) %18, ptr noundef %6)
  %22 = load ptr, ptr %4, align 8
  %23 = getelementptr inbounds %"class.gmx::AwhParams", ptr %8, i32 0, i32 2
  %24 = load ptr, ptr %22, align 8
  %25 = getelementptr inbounds ptr, ptr %24, i64 7
  %26 = load ptr, ptr %25, align 8
  call void %26(ptr noundef nonnull align 8 dereferenceable(8) %22, ptr noundef %23)
  %27 = load ptr, ptr %4, align 8
  %28 = getelementptr inbounds %"class.gmx::AwhParams", ptr %8, i32 0, i32 1
  %29 = load ptr, ptr %27, align 8
  %30 = getelementptr inbounds ptr, ptr %29, i64 9
  %31 = load ptr, ptr %30, align 8
  call void %31(ptr noundef nonnull align 8 dereferenceable(8) %27, ptr noundef %28)
  %32 = load ptr, ptr %4, align 8
  %33 = getelementptr inbounds %"class.gmx::AwhParams", ptr %8, i32 0, i32 3
  %34 = load ptr, ptr %32, align 8
  %35 = getelementptr inbounds ptr, ptr %34, i64 7
  %36 = load ptr, ptr %35, align 8
  call void %36(ptr noundef nonnull align 8 dereferenceable(8) %32, ptr noundef %33)
  %37 = load ptr, ptr %4, align 8
  %38 = getelementptr inbounds %"class.gmx::AwhParams", ptr %8, i32 0, i32 4
  %39 = load ptr, ptr %37, align 8
  %40 = getelementptr inbounds ptr, ptr %39, i64 7
  %41 = load ptr, ptr %40, align 8
  call void %41(ptr noundef nonnull align 8 dereferenceable(8) %37, ptr noundef %38)
  %42 = load ptr, ptr %4, align 8
  %43 = getelementptr inbounds %"class.gmx::AwhParams", ptr %8, i32 0, i32 5
  call void @_ZN3gmx11ISerializer11doEnumAsIntINS_16AwhPotentialTypeEEEvPT_(ptr noundef nonnull align 8 dereferenceable(8) %42, ptr noundef %43)
  %44 = load ptr, ptr %4, align 8
  %45 = getelementptr inbounds %"class.gmx::AwhParams", ptr %8, i32 0, i32 6
  %46 = load ptr, ptr %44, align 8
  %47 = getelementptr inbounds ptr, ptr %46, i64 3
  %48 = load ptr, ptr %47, align 8
  call void %48(ptr noundef nonnull align 8 dereferenceable(8) %44, ptr noundef %45)
  %49 = load i32, ptr %6, align 4
  %50 = icmp sgt i32 %49, 0
  br i1 %50, label %51, label %66

51:                                               ; preds = %16
  store i32 0, ptr %7, align 4
  br label %52

52:                                               ; preds = %62, %51
  %53 = load i32, ptr %7, align 4
  %54 = load i32, ptr %6, align 4
  %55 = icmp slt i32 %53, %54
  br i1 %55, label %56, label %65

56:                                               ; preds = %52
  %57 = getelementptr inbounds %"class.gmx::AwhParams", ptr %8, i32 0, i32 0
  %58 = load i32, ptr %7, align 4
  %59 = sext i32 %58 to i64
  %60 = call noundef nonnull align 8 dereferenceable(93) ptr @_ZNSt6vectorIN3gmx13AwhBiasParamsESaIS1_EEixEm(ptr noundef nonnull align 8 dereferenceable(24) %57, i64 noundef %59) #4
  %61 = load ptr, ptr %4, align 8
  call void @_ZN3gmx13AwhBiasParams9serializeEPNS_11ISerializerE(ptr noundef nonnull align 8 dereferenceable(93) %60, ptr noundef %61)
  br label %62

62:                                               ; preds = %56
  %63 = load i32, ptr %7, align 4
  %64 = add nsw i32 %63, 1
  store i32 %64, ptr %7, align 4
  br label %52, !llvm.loop !18

65:                                               ; preds = %52
  br label %66

66:                                               ; preds = %65, %16
  ret void
}