; Function Attrs: mustprogress uwtable
define void @_ZN3gmx9AwhParams9serializeEPNS_11ISerializerE(ptr noundef nonnull align 8 dereferenceable(49) %0, ptr noundef %1) local_unnamed_addr #4 align 2 {
  %3 = alloca i32, align 4
  %4 = alloca i32, align 4
  %5 = load ptr, ptr %1, align 8
  %6 = getelementptr inbounds i8, ptr %5, i64 16
  %7 = load ptr, ptr %6, align 8
  %8 = tail call noundef zeroext i1 %7(ptr noundef nonnull align 8 dereferenceable(8) %1)
  br i1 %8, label %9, label %10

9:                                                ; preds = %2
  tail call void @_ZN3gmx8internal13assertHandlerEPKcS2_S2_S2_i(ptr noundef nonnull @.str.39, ptr noundef nonnull @.str.94, ptr noundef nonnull @"__PRETTY_FUNCTION__._ZZN3gmx9AwhParams9serializeEPNS_11ISerializerEENK3$_0clEv", ptr noundef nonnull @.str.38, i32 noundef 1039) #23
  unreachable

10:                                               ; preds = %2
  %11 = getelementptr inbounds i8, ptr %0, i64 8
  %12 = load ptr, ptr %11, align 8
  %13 = load ptr, ptr %0, align 8
  %14 = ptrtoint ptr %12 to i64
  %15 = ptrtoint ptr %13 to i64
  %16 = sub i64 %14, %15
  %17 = sdiv exact i64 %16, 96
  %18 = trunc i64 %17 to i32
  store i32 %18, ptr %4, align 4
  %19 = load ptr, ptr %1, align 8
  %20 = getelementptr inbounds i8, ptr %19, i64 56
  %21 = load ptr, ptr %20, align 8
  call void %21(ptr noundef nonnull align 8 dereferenceable(8) %1, ptr noundef nonnull %4)
  %22 = getelementptr inbounds i8, ptr %0, i64 32
  %23 = load ptr, ptr %1, align 8
  %24 = getelementptr inbounds i8, ptr %23, i64 56
  %25 = load ptr, ptr %24, align 8
  call void %25(ptr noundef nonnull align 8 dereferenceable(8) %1, ptr noundef nonnull %22)
  %26 = getelementptr inbounds i8, ptr %0, i64 24
  %27 = load ptr, ptr %1, align 8
  %28 = getelementptr inbounds i8, ptr %27, i64 72
  %29 = load ptr, ptr %28, align 8
  call void %29(ptr noundef nonnull align 8 dereferenceable(8) %1, ptr noundef nonnull %26)
  %30 = getelementptr inbounds i8, ptr %0, i64 36
  %31 = load ptr, ptr %1, align 8
  %32 = getelementptr inbounds i8, ptr %31, i64 56
  %33 = load ptr, ptr %32, align 8
  call void %33(ptr noundef nonnull align 8 dereferenceable(8) %1, ptr noundef nonnull %30)
  %34 = getelementptr inbounds i8, ptr %0, i64 40
  %35 = load ptr, ptr %1, align 8
  %36 = getelementptr inbounds i8, ptr %35, i64 56
  %37 = load ptr, ptr %36, align 8
  call void %37(ptr noundef nonnull align 8 dereferenceable(8) %1, ptr noundef nonnull %34)
  %38 = getelementptr inbounds i8, ptr %0, i64 44
  call void @llvm.lifetime.start.p0(i64 4, ptr nonnull %3)
  %39 = load i32, ptr %38, align 4
  store i32 %39, ptr %3, align 4
  %40 = load ptr, ptr %1, align 8
  %41 = getelementptr inbounds i8, ptr %40, i64 56
  %42 = load ptr, ptr %41, align 8
  call void %42(ptr noundef nonnull align 8 dereferenceable(8) %1, ptr noundef nonnull %3)
  %43 = load i32, ptr %3, align 4
  store i32 %43, ptr %38, align 4
  call void @llvm.lifetime.end.p0(i64 4, ptr nonnull %3)
  %44 = getelementptr inbounds i8, ptr %0, i64 48
  %45 = load ptr, ptr %1, align 8
  %46 = getelementptr inbounds i8, ptr %45, i64 24
  %47 = load ptr, ptr %46, align 8
  call void %47(ptr noundef nonnull align 8 dereferenceable(8) %1, ptr noundef nonnull %44)
  %48 = load i32, ptr %4, align 4
  %49 = icmp sgt i32 %48, 0
  br i1 %49, label %.lr.ph, label %.loopexit

.lr.ph:                                           ; preds = %10, %.lr.ph
  %indvars.iv = phi i64 [ %indvars.iv.next, %.lr.ph ], [ 0, %10 ]
  %50 = load ptr, ptr %0, align 8
  %51 = getelementptr inbounds %"class.gmx::AwhBiasParams", ptr %50, i64 %indvars.iv
  call void @_ZN3gmx13AwhBiasParams9serializeEPNS_11ISerializerE(ptr noundef nonnull align 8 dereferenceable(93) %51, ptr noundef nonnull %1)
  %indvars.iv.next = add nuw nsw i64 %indvars.iv, 1
  %52 = load i32, ptr %4, align 4
  %53 = sext i32 %52 to i64
  %54 = icmp slt i64 %indvars.iv.next, %53
  br i1 %54, label %.lr.ph, label %.loopexit, !llvm.loop !58

.loopexit:                                        ; preds = %.lr.ph, %10
  ret void
}